; Function Attrs: nounwind uwtable
define ptr @l_Lean_Meta_Grind_Canon_canonImpl_visit(ptr noundef %0, ptr noundef %1, ptr noundef %2, ptr noundef %3, ptr noundef %4, ptr noundef %5, ptr noundef %6, ptr noundef %7, ptr noundef %8, ptr noundef %9, ptr noundef %10) local_unnamed_addr #1 {
  %12 = tail call zeroext i8 @l_Lean_Expr_isApp(ptr noundef %0) #9
  %13 = icmp eq i8 %12, 0
  br i1 %13, label %14, label %107

14:                                               ; preds = %11
  %15 = tail call zeroext i8 @l_Lean_Expr_isForall(ptr noundef %0) #9
  %16 = icmp eq i8 %15, 0
  br i1 %16, label %17, label %105

17:                                               ; preds = %14
  %18 = ptrtoint ptr %9 to i64
  %19 = and i64 %18, 1
  %.not = icmp eq i64 %19, 0
  br i1 %.not, label %20, label %lean_dec.exit51

20:                                               ; preds = %17
  %21 = load i32, ptr %9, align 4, !tbaa !4
  %22 = icmp sgt i32 %21, 1
  br i1 %22, label %23, label %25, !prof !11

23:                                               ; preds = %20
  %24 = add nsw i32 %21, -1
  store i32 %24, ptr %9, align 4, !tbaa !4
  br label %lean_dec.exit51

25:                                               ; preds = %20
  %.not.i = icmp eq i32 %21, 0
  br i1 %.not.i, label %lean_dec.exit51, label %26

26:                                               ; preds = %25
  tail call void @lean_dec_ref_cold(ptr noundef nonnull %9) #9
  br label %lean_dec.exit51

lean_dec.exit51:                                  ; preds = %26, %25, %23, %17
  %27 = ptrtoint ptr %8 to i64
  %28 = and i64 %27, 1
  %.not68 = icmp eq i64 %28, 0
  br i1 %.not68, label %29, label %lean_dec.exit50

29:                                               ; preds = %lean_dec.exit51
  %30 = load i32, ptr %8, align 4, !tbaa !4
  %31 = icmp sgt i32 %30, 1
  br i1 %31, label %32, label %34, !prof !11

32:                                               ; preds = %29
  %33 = add nsw i32 %30, -1
  store i32 %33, ptr %8, align 4, !tbaa !4
  br label %lean_dec.exit50

34:                                               ; preds = %29
  %.not.i52 = icmp eq i32 %30, 0
  br i1 %.not.i52, label %lean_dec.exit50, label %35

35:                                               ; preds = %34
  tail call void @lean_dec_ref_cold(ptr noundef nonnull %8) #9
  br label %lean_dec.exit50

lean_dec.exit50:                                  ; preds = %35, %34, %32, %lean_dec.exit51
  %36 = ptrtoint ptr %7 to i64
  %37 = and i64 %36, 1
  %.not69 = icmp eq i64 %37, 0
  br i1 %.not69, label %38, label %lean_dec.exit49

38:                                               ; preds = %lean_dec.exit50
  %39 = load i32, ptr %7, align 4, !tbaa !4
  %40 = icmp sgt i32 %39, 1
  br i1 %40, label %41, label %43, !prof !11

41:                                               ; preds = %38
  %42 = add nsw i32 %39, -1
  store i32 %42, ptr %7, align 4, !tbaa !4
  br label %lean_dec.exit49

43:                                               ; preds = %38
  %.not.i54 = icmp eq i32 %39, 0
  br i1 %.not.i54, label %lean_dec.exit49, label %44

44:                                               ; preds = %43
  tail call void @lean_dec_ref_cold(ptr noundef nonnull %7) #9
  br label %lean_dec.exit49

lean_dec.exit49:                                  ; preds = %44, %43, %41, %lean_dec.exit50
  %45 = ptrtoint ptr %6 to i64
  %46 = and i64 %45, 1
  %.not70 = icmp eq i64 %46, 0
  br i1 %.not70, label %47, label %lean_dec.exit48

47:                                               ; preds = %lean_dec.exit49
  %48 = load i32, ptr %6, align 4, !tbaa !4
  %49 = icmp sgt i32 %48, 1
  br i1 %49, label %50, label %52, !prof !11

50:                                               ; preds = %47
  %51 = add nsw i32 %48, -1
  store i32 %51, ptr %6, align 4, !tbaa !4
  br label %lean_dec.exit48

52:                                               ; preds = %47
  %.not.i56 = icmp eq i32 %48, 0
  br i1 %.not.i56, label %lean_dec.exit48, label %53

53:                                               ; preds = %52
  tail call void @lean_dec_ref_cold(ptr noundef nonnull %6) #9
  br label %lean_dec.exit48

lean_dec.exit48:                                  ; preds = %53, %52, %50, %lean_dec.exit49
  %54 = ptrtoint ptr %5 to i64
  %55 = and i64 %54, 1
  %.not71 = icmp eq i64 %55, 0
  br i1 %.not71, label %56, label %lean_dec.exit47

56:                                               ; preds = %lean_dec.exit48
  %57 = load i32, ptr %5, align 4, !tbaa !4
  %58 = icmp sgt i32 %57, 1
  br i1 %58, label %59, label %61, !prof !11

59:                                               ; preds = %56
  %60 = add nsw i32 %57, -1
  store i32 %60, ptr %5, align 4, !tbaa !4
  br label %lean_dec.exit47

61:                                               ; preds = %56
  %.not.i58 = icmp eq i32 %57, 0
  br i1 %.not.i58, label %lean_dec.exit47, label %62

62:                                               ; preds = %61
  tail call void @lean_dec_ref_cold(ptr noundef nonnull %5) #9
  br label %lean_dec.exit47

lean_dec.exit47:                                  ; preds = %62, %61, %59, %lean_dec.exit48
  %63 = ptrtoint ptr %4 to i64
  %64 = and i64 %63, 1
  %.not72 = icmp eq i64 %64, 0
  br i1 %.not72, label %65, label %lean_dec.exit46

65:                                               ; preds = %lean_dec.exit47
  %66 = load i32, ptr %4, align 4, !tbaa !4
  %67 = icmp sgt i32 %66, 1
  br i1 %67, label %68, label %70, !prof !11

68:                                               ; preds = %65
  %69 = add nsw i32 %66, -1
  store i32 %69, ptr %4, align 4, !tbaa !4
  br label %lean_dec.exit46

70:                                               ; preds = %65
  %.not.i60 = icmp eq i32 %66, 0
  br i1 %.not.i60, label %lean_dec.exit46, label %71

71:                                               ; preds = %70
  tail call void @lean_dec_ref_cold(ptr noundef nonnull %4) #9
  br label %lean_dec.exit46

lean_dec.exit46:                                  ; preds = %71, %70, %68, %lean_dec.exit47
  %72 = ptrtoint ptr %3 to i64
  %73 = and i64 %72, 1
  %.not73 = icmp eq i64 %73, 0
  br i1 %.not73, label %74, label %lean_dec.exit45

74:                                               ; preds = %lean_dec.exit46
  %75 = load i32, ptr %3, align 4, !tbaa !4
  %76 = icmp sgt i32 %75, 1
  br i1 %76, label %77, label %79, !prof !11

77:                                               ; preds = %74
  %78 = add nsw i32 %75, -1
  store i32 %78, ptr %3, align 4, !tbaa !4
  br label %lean_dec.exit45

79:                                               ; preds = %74
  %.not.i62 = icmp eq i32 %75, 0
  br i1 %.not.i62, label %lean_dec.exit45, label %80

80:                                               ; preds = %79
  tail call void @lean_dec_ref_cold(ptr noundef nonnull %3) #9
  br label %lean_dec.exit45

lean_dec.exit45:                                  ; preds = %80, %79, %77, %lean_dec.exit46
  %81 = ptrtoint ptr %2 to i64
  %82 = and i64 %81, 1
  %.not74 = icmp eq i64 %82, 0
  br i1 %.not74, label %83, label %lean_dec.exit44

83:                                               ; preds = %lean_dec.exit45
  %84 = load i32, ptr %2, align 4, !tbaa !4
  %85 = icmp sgt i32 %84, 1
  br i1 %85, label %86, label %88, !prof !11

86:                                               ; preds = %83
  %87 = add nsw i32 %84, -1
  store i32 %87, ptr %2, align 4, !tbaa !4
  br label %lean_dec.exit44

88:                                               ; preds = %83
  %.not.i64 = icmp eq i32 %84, 0
  br i1 %.not.i64, label %lean_dec.exit44, label %89

89:                                               ; preds = %88
  tail call void @lean_dec_ref_cold(ptr noundef nonnull %2) #9
  br label %lean_dec.exit44

lean_dec.exit44:                                  ; preds = %89, %88, %86, %lean_dec.exit45
  %90 = ptrtoint ptr %1 to i64
  %91 = and i64 %90, 1
  %.not75 = icmp eq i64 %91, 0
  br i1 %.not75, label %92, label %lean_dec.exit

92:                                               ; preds = %lean_dec.exit44
  %93 = load i32, ptr %1, align 4, !tbaa !4
  %94 = icmp sgt i32 %93, 1
  br i1 %94, label %95, label %97, !prof !11

95:                                               ; preds = %92
  %96 = add nsw i32 %93, -1
  store i32 %96, ptr %1, align 4, !tbaa !4
  br label %lean_dec.exit

97:                                               ; preds = %92
  %.not.i66 = icmp eq i32 %93, 0
  br i1 %.not.i66, label %lean_dec.exit, label %98

98:                                               ; preds = %97
  tail call void @lean_dec_ref_cold(ptr noundef nonnull %1) #9
  br label %lean_dec.exit

lean_dec.exit:                                    ; preds = %98, %97, %95, %lean_dec.exit44
  tail call void @lean_inc_heartbeat() #9
  %99 = tail call noalias ptr @mi_malloc_small(i64 noundef 24) #9
  %100 = icmp eq ptr %99, null
  br i1 %100, label %101, label %lean_alloc_ctor.exit

101:                                              ; preds = %lean_dec.exit
  tail call void @lean_internal_panic_out_of_memory() #10
  unreachable

lean_alloc_ctor.exit:                             ; preds = %lean_dec.exit
  %102 = getelementptr inbounds nuw i8, ptr %99, i64 4
  store i32 1, ptr %99, align 4, !tbaa !4
  store i32 131096, ptr %102, align 4
  %103 = getelementptr inbounds nuw i8, ptr %99, i64 8
  store ptr %0, ptr %103, align 8, !tbaa !9
  %104 = getelementptr inbounds nuw i8, ptr %99, i64 16
  store ptr %10, ptr %104, align 8, !tbaa !9
  br label %109

105:                                              ; preds = %14
  %106 = tail call ptr @l_Lean_Meta_Grind_Canon_canonImpl_visit___lambda__4(ptr noundef %0, ptr nonnull poison, ptr noundef %1, ptr noundef %2, ptr noundef %3, ptr noundef %4, ptr noundef %5, ptr noundef %6, ptr noundef %7, ptr noundef %8, ptr noundef %9, ptr noundef %10)
  br label %109

107:                                              ; preds = %11
  %108 = tail call ptr @l_Lean_Meta_Grind_Canon_canonImpl_visit___lambda__4(ptr noundef %0, ptr nonnull poison, ptr noundef %1, ptr noundef %2, ptr noundef %3, ptr noundef %4, ptr noundef %5, ptr noundef %6, ptr noundef %7, ptr noundef %8, ptr noundef %9, ptr noundef %10)
  br label %109

109:                                              ; preds = %lean_alloc_ctor.exit, %105, %107
  %.1 = phi ptr [ %108, %107 ], [ %99, %lean_alloc_ctor.exit ], [ %106, %105 ]
  ret ptr %.1
}